target datalayout = "e-m:e-p270:32:32-p271:32:32-p272:64:64-i64:64-i128:128-f80:128-n8:16:32:64-S128"
target triple = "x86_64-pc-linux-gnu"

%struct.LogicalRepTupleData = type { ptr, ptr, i32 }
%struct.StringInfoData = type { ptr, i32, i32, i32 }

@.str.1 = private unnamed_addr constant [8 x i8] c"proto.c\00", align 1
@.str.44 = private unnamed_addr constant [43 x i8] c"unrecognized data representation type '%c'\00", align 1
@__func__.logicalrep_read_tuple = private unnamed_addr constant [22 x i8] c"logicalrep_read_tuple\00", align 1

; Function Attrs: inlinehint nounwind uwtable
define internal void @initStringInfoFromString(ptr noundef %0, ptr noundef %1, i32 noundef %2) #1 {
  %4 = alloca ptr, align 8
  %5 = alloca ptr, align 8
  %6 = alloca i32, align 4
  store ptr %0, ptr %4, align 8
  store ptr %1, ptr %5, align 8
  store i32 %2, ptr %6, align 4
  %7 = load ptr, ptr %5, align 8
  %8 = load ptr, ptr %4, align 8
  %9 = getelementptr inbounds nuw %struct.StringInfoData, ptr %8, i32 0, i32 0
  store ptr %7, ptr %9, align 8
  %10 = load i32, ptr %6, align 4
  %11 = load ptr, ptr %4, align 8
  %12 = getelementptr inbounds nuw %struct.StringInfoData, ptr %11, i32 0, i32 1
  store i32 %10, ptr %12, align 8
  %13 = load i32, ptr %6, align 4
  %14 = add i32 %13, 1
  %15 = load ptr, ptr %4, align 8
  %16 = getelementptr inbounds nuw %struct.StringInfoData, ptr %15, i32 0, i32 2
  store i32 %14, ptr %16, align 4
  %17 = load ptr, ptr %4, align 8
  %18 = getelementptr inbounds nuw %struct.StringInfoData, ptr %17, i32 0, i32 3
  store i32 0, ptr %18, align 8
  ret void
}

; Function Attrs: nounwind uwtable
define internal void @logicalrep_read_tuple(ptr noundef %0, ptr noundef %1) #0 {
  %3 = alloca ptr, align 8
  %4 = alloca ptr, align 8
  %5 = alloca i32, align 4
  %6 = alloca i32, align 4
  %7 = alloca ptr, align 8
  %8 = alloca i8, align 1
  %9 = alloca i32, align 4
  %10 = alloca ptr, align 8
  store ptr %0, ptr %3, align 8
  store ptr %1, ptr %4, align 8
  call void @llvm.lifetime.start.p0(i64 4, ptr %5) #9
  call void @llvm.lifetime.start.p0(i64 4, ptr %6) #9
  %11 = load ptr, ptr %3, align 8
  %12 = call i32 @pq_getmsgint(ptr noundef %11, i32 noundef 2)
  store i32 %12, ptr %6, align 4
  %13 = load i32, ptr %6, align 4
  %14 = sext i32 %13 to i64
  %15 = mul i64 %14, 24
  %16 = call ptr @palloc0(i64 noundef %15)
  %17 = load ptr, ptr %4, align 8
  %18 = getelementptr inbounds nuw %struct.LogicalRepTupleData, ptr %17, i32 0, i32 0
  store ptr %16, ptr %18, align 8
  %19 = load i32, ptr %6, align 4
  %20 = sext i32 %19 to i64
  %21 = mul i64 %20, 1
  %22 = call ptr @palloc(i64 noundef %21)
  %23 = load ptr, ptr %4, align 8
  %24 = getelementptr inbounds nuw %struct.LogicalRepTupleData, ptr %23, i32 0, i32 1
  store ptr %22, ptr %24, align 8
  %25 = load i32, ptr %6, align 4
  %26 = load ptr, ptr %4, align 8
  %27 = getelementptr inbounds nuw %struct.LogicalRepTupleData, ptr %26, i32 0, i32 2
  store i32 %25, ptr %27, align 8
  store i32 0, ptr %5, align 4
  br label %28

28:                                               ; preds = %82, %2
  %29 = load i32, ptr %5, align 4
  %30 = load i32, ptr %6, align 4
  %31 = icmp slt i32 %29, %30
  br i1 %31, label %32, label %85

32:                                               ; preds = %28
  call void @llvm.lifetime.start.p0(i64 8, ptr %7) #9
  call void @llvm.lifetime.start.p0(i64 1, ptr %8) #9
  call void @llvm.lifetime.start.p0(i64 4, ptr %9) #9
  call void @llvm.lifetime.start.p0(i64 8, ptr %10) #9
  %33 = load ptr, ptr %4, align 8
  %34 = getelementptr inbounds nuw %struct.LogicalRepTupleData, ptr %33, i32 0, i32 0
  %35 = load ptr, ptr %34, align 8
  %36 = load i32, ptr %5, align 4
  %37 = sext i32 %36 to i64
  %38 = getelementptr inbounds %struct.StringInfoData, ptr %35, i64 %37
  store ptr %38, ptr %10, align 8
  %39 = load ptr, ptr %3, align 8
  %40 = call i32 @pq_getmsgbyte(ptr noundef %39)
  %41 = trunc i32 %40 to i8
  store i8 %41, ptr %8, align 1
  %42 = load i8, ptr %8, align 1
  %43 = load ptr, ptr %4, align 8
  %44 = getelementptr inbounds nuw %struct.LogicalRepTupleData, ptr %43, i32 0, i32 1
  %45 = load ptr, ptr %44, align 8
  %46 = load i32, ptr %5, align 4
  %47 = sext i32 %46 to i64
  %48 = getelementptr inbounds i8, ptr %45, i64 %47
  store i8 %42, ptr %48, align 1
  %49 = load i8, ptr %8, align 1
  %50 = sext i8 %49 to i32
  switch i32 %50, label %68 [
    i32 110, label %81
    i32 117, label %81
    i32 116, label %51
    i32 98, label %51
  ]

51:                                               ; preds = %32, %32
  %52 = load ptr, ptr %3, align 8
  %53 = call i32 @pq_getmsgint(ptr noundef %52, i32 noundef 4)
  store i32 %53, ptr %9, align 4
  %54 = load i32, ptr %9, align 4
  %55 = add i32 %54, 1
  %56 = sext i32 %55 to i64
  %57 = call ptr @palloc(i64 noundef %56)
  store ptr %57, ptr %7, align 8
  %58 = load ptr, ptr %3, align 8
  %59 = load ptr, ptr %7, align 8
  %60 = load i32, ptr %9, align 4
  call void @pq_copymsgbytes(ptr noundef %58, ptr noundef %59, i32 noundef %60)
  %61 = load ptr, ptr %7, align 8
  %62 = load i32, ptr %9, align 4
  %63 = sext i32 %62 to i64
  %64 = getelementptr inbounds i8, ptr %61, i64 %63
  store i8 0, ptr %64, align 1
  %65 = load ptr, ptr %10, align 8
  %66 = load ptr, ptr %7, align 8
  %67 = load i32, ptr %9, align 4
  call void @initStringInfoFromString(ptr noundef %65, ptr noundef %66, i32 noundef %67)
  br label %81

68:                                               ; preds = %32
  br label %69

69:                                               ; preds = %68
  br i1 true, label %70, label %72

70:                                               ; preds = %69
  %71 = call zeroext i1 @errstart_cold(i32 noundef 21, ptr noundef null) #8
  br i1 %71, label %74, label %78

72:                                               ; preds = %69
  %73 = call zeroext i1 @errstart(i32 noundef 21, ptr noundef null)
  br i1 %73, label %74, label %78

74:                                               ; preds = %72, %70
  %75 = load i8, ptr %8, align 1
  %76 = sext i8 %75 to i32
  %77 = call i32 (ptr, ...) @errmsg_internal(ptr noundef @.str.44, i32 noundef %76)
  call void @errfinish(ptr noundef @.str.1, i32 noundef 912, ptr noundef @__func__.logicalrep_read_tuple)
  br label %78

78:                                               ; preds = %74, %72, %70
  unreachable

79:                                               ; No predecessors!
  br label %80

80:                                               ; preds = %79
  br label %81

81:                                               ; preds = %80, %51, %32, %32
  call void @llvm.lifetime.end.p0(i64 8, ptr %10) #9
  call void @llvm.lifetime.end.p0(i64 4, ptr %9) #9
  call void @llvm.lifetime.end.p0(i64 1, ptr %8) #9
  call void @llvm.lifetime.end.p0(i64 8, ptr %7) #9
  br label %82

82:                                               ; preds = %81
  %83 = load i32, ptr %5, align 4
  %84 = add i32 %83, 1
  store i32 %84, ptr %5, align 4
  br label %28, !llvm.loop !9

85:                                               ; preds = %28
  call void @llvm.lifetime.end.p0(i64 4, ptr %6) #9
  call void @llvm.lifetime.end.p0(i64 4, ptr %5) #9
  ret void
}