; Function Attrs: nounwind uwtable
define internal fastcc void @logicalrep_read_tuple(ptr noundef %0, ptr noundef captures(none) initializes((0, 20)) %1) unnamed_addr #0 {
  %3 = tail call i32 @pq_getmsgint(ptr noundef %0, i32 noundef 2) #8
  %4 = sext i32 %3 to i64
  %5 = mul nsw i64 %4, 24
  %6 = tail call ptr @palloc0(i64 noundef %5) #8
  store ptr %6, ptr %1, align 8
  %7 = tail call ptr @palloc(i64 noundef %4) #8
  %8 = getelementptr inbounds nuw i8, ptr %1, i64 8
  store ptr %7, ptr %8, align 8
  %9 = getelementptr inbounds nuw i8, ptr %1, i64 16
  store i32 %3, ptr %9, align 8
  %10 = icmp sgt i32 %3, 0
  br i1 %10, label %.lr.ph.preheader, label %._crit_edge

.lr.ph.preheader:                                 ; preds = %2
  %wide.trip.count = zext nneg i32 %3 to i64
  br label %.lr.ph

.lr.ph:                                           ; preds = %.lr.ph.preheader, %31
  %indvars.iv = phi i64 [ 0, %.lr.ph.preheader ], [ %indvars.iv.next, %31 ]
  %11 = load ptr, ptr %1, align 8
  %12 = tail call i32 @pq_getmsgbyte(ptr noundef %0) #8
  %13 = trunc i32 %12 to i8
  %14 = load ptr, ptr %8, align 8
  %15 = getelementptr inbounds nuw i8, ptr %14, i64 %indvars.iv
  store i8 %13, ptr %15, align 1
  %sext = shl i32 %12, 24
  %16 = ashr exact i32 %sext, 24
  switch i32 %16, label %28 [
    i32 110, label %31
    i32 117, label %31
    i32 116, label %17
    i32 98, label %17
  ]

17:                                               ; preds = %.lr.ph, %.lr.ph
  %18 = getelementptr inbounds nuw %struct.StringInfoData, ptr %11, i64 %indvars.iv
  %19 = tail call i32 @pq_getmsgint(ptr noundef %0, i32 noundef 4) #8
  %20 = add i32 %19, 1
  %21 = sext i32 %20 to i64
  %22 = tail call ptr @palloc(i64 noundef %21) #8
  tail call void @pq_copymsgbytes(ptr noundef %0, ptr noundef %22, i32 noundef %19) #8
  %23 = sext i32 %19 to i64
  %24 = getelementptr inbounds i8, ptr %22, i64 %23
  store i8 0, ptr %24, align 1
  store ptr %22, ptr %18, align 8
  %25 = getelementptr inbounds nuw i8, ptr %18, i64 8
  store i32 %19, ptr %25, align 8
  %26 = getelementptr inbounds nuw i8, ptr %18, i64 12
  store i32 %20, ptr %26, align 4
  %27 = getelementptr inbounds nuw i8, ptr %18, i64 16
  store i32 0, ptr %27, align 8
  br label %31

28:                                               ; preds = %.lr.ph
  %29 = tail call zeroext i1 @errstart_cold(i32 noundef 21, ptr noundef null) #9
  tail call void @llvm.assume(i1 %29)
  %30 = tail call i32 (ptr, ...) @errmsg_internal(ptr noundef nonnull @.str.44, i32 noundef %16) #8
  tail call void @errfinish(ptr noundef nonnull @.str.1, i32 noundef 912, ptr noundef nonnull @__func__.logicalrep_read_tuple) #8
  unreachable

31:                                               ; preds = %17, %.lr.ph, %.lr.ph
  %indvars.iv.next = add nuw nsw i64 %indvars.iv, 1
  %exitcond.not = icmp eq i64 %indvars.iv.next, %wide.trip.count
  br i1 %exitcond.not, label %._crit_edge, label %.lr.ph, !llvm.loop !144

._crit_edge:                                      ; preds = %31, %2
  ret void
}